target datalayout = "e-m:e-p270:32:32-p271:32:32-p272:64:64-i64:64-i128:128-f80:128-n8:16:32:64-S128"
target triple = "x86_64-pc-linux-gnu"

%"class.datalog::udoc_plugin" = type <{ %"class.datalog::relation_plugin.base", [4 x i8], ptr, %class.bv_util, %"class.datalog::dl_decl_util", %class.u_map, i8, [7 x i8] }>
%"class.datalog::relation_plugin.base" = type <{ %"class.datalog::tr_infrastructure<datalog::relation_traits>::plugin_object", i32 }>
%"class.datalog::tr_infrastructure<datalog::relation_traits>::plugin_object" = type { ptr, i32, %class.symbol, ptr }
%class.symbol = type { ptr }
%class.bv_util = type { %class.bv_recognizers, ptr, ptr }
%class.bv_recognizers = type { i32 }
%"class.datalog::dl_decl_util" = type <{ ptr, %class.scoped_ptr, %class.scoped_ptr.1, i32, [4 x i8] }>
%class.scoped_ptr = type { ptr }
%class.scoped_ptr.1 = type { ptr }
%class.u_map = type { %class.map }
%class.map = type { %class.table2map }
%class.table2map = type { %class.core_hashtable }
%class.core_hashtable = type <{ ptr, i32, i32, i32, [4 x i8] }>
%struct._key_data = type { i32, ptr }
%class.default_map_entry = type { %class.default_hash_entry }
%class.default_hash_entry = type { i32, i32, %struct._key_data }

; Function Attrs: mustprogress nounwind uwtable
define linkonce_odr hidden noundef zeroext i1 @_ZNK4u_eqclEjj(ptr noundef nonnull align 1 dereferenceable(1) %0, i32 noundef %1, i32 noundef %2) #6 comdat align 2 {
  %4 = alloca ptr, align 8
  %5 = alloca i32, align 4
  %6 = alloca i32, align 4
  store ptr %0, ptr %4, align 8, !tbaa !627
  store i32 %1, ptr %5, align 4, !tbaa !16
  store i32 %2, ptr %6, align 4, !tbaa !16
  %7 = load i32, ptr %5, align 4, !tbaa !16
  %8 = load i32, ptr %6, align 4, !tbaa !16
  %9 = icmp eq i32 %7, %8
  ret i1 %9
}

; Function Attrs: mustprogress nounwind uwtable
define linkonce_odr hidden noundef i32 @_ZNK6u_hashclEj(ptr noundef nonnull align 1 dereferenceable(1) %0, i32 noundef %1) #6 comdat align 2 {
  %3 = alloca ptr, align 8
  %4 = alloca i32, align 4
  store ptr %0, ptr %3, align 8, !tbaa !625
  store i32 %1, ptr %4, align 4, !tbaa !16
  %5 = load i32, ptr %4, align 4, !tbaa !16
  ret i32 %5
}

; Function Attrs: mustprogress uwtable
define linkonce_odr hidden noundef zeroext i1 @_ZNK9table2mapI17default_map_entryIjP11doc_managerE6u_hash4u_eqE13entry_eq_procclERK9_key_dataIjS2_ESB_(ptr noundef nonnull align 1 dereferenceable(1) %0, ptr noundef nonnull align 8 dereferenceable(16) %1, ptr noundef nonnull align 8 dereferenceable(16) %2) #4 comdat align 2 {
  %4 = alloca ptr, align 8
  %5 = alloca ptr, align 8
  %6 = alloca ptr, align 8
  store ptr %0, ptr %4, align 8, !tbaa !631
  store ptr %1, ptr %5, align 8, !tbaa !833
  store ptr %2, ptr %6, align 8, !tbaa !833
  %7 = load ptr, ptr %4, align 8
  %8 = load ptr, ptr %5, align 8, !tbaa !833
  %9 = getelementptr inbounds nuw %struct._key_data, ptr %8, i32 0, i32 0
  %10 = load i32, ptr %9, align 8, !tbaa !379
  %11 = load ptr, ptr %6, align 8, !tbaa !833
  %12 = getelementptr inbounds nuw %struct._key_data, ptr %11, i32 0, i32 0
  %13 = load i32, ptr %12, align 8, !tbaa !379
  %14 = call noundef zeroext i1 @_ZNK4u_eqclEjj(ptr noundef nonnull align 1 dereferenceable(1) %7, i32 noundef %10, i32 noundef %13)
  ret i1 %14
}

; Function Attrs: mustprogress uwtable
define linkonce_odr hidden noundef i32 @_ZNK9table2mapI17default_map_entryIjP11doc_managerE6u_hash4u_eqE15entry_hash_procclERK9_key_dataIjS2_E(ptr noundef nonnull align 1 dereferenceable(1) %0, ptr noundef nonnull align 8 dereferenceable(16) %1) #4 comdat align 2 {
  %3 = alloca ptr, align 8
  %4 = alloca ptr, align 8
  store ptr %0, ptr %3, align 8, !tbaa !629
  store ptr %1, ptr %4, align 8, !tbaa !833
  %5 = load ptr, ptr %3, align 8
  %6 = load ptr, ptr %4, align 8, !tbaa !833
  %7 = getelementptr inbounds nuw %struct._key_data, ptr %6, i32 0, i32 0
  %8 = load i32, ptr %7, align 8, !tbaa !379
  %9 = call noundef i32 @_ZNK6u_hashclEj(ptr noundef nonnull align 1 dereferenceable(1) %5, i32 noundef %8)
  ret i32 %9
}

; Function Attrs: mustprogress nounwind uwtable
define linkonce_odr hidden noundef zeroext i1 @_ZNK18default_hash_entryI9_key_dataIjP11doc_managerEE7is_freeEv(ptr noundef nonnull align 8 dereferenceable(24) %0) #6 comdat align 2 {
  %2 = alloca ptr, align 8
  store ptr %0, ptr %2, align 8, !tbaa !640
  %3 = load ptr, ptr %2, align 8
  %4 = getelementptr inbounds nuw %class.default_hash_entry, ptr %3, i32 0, i32 1
  %5 = load i32, ptr %4, align 4, !tbaa !645
  %6 = icmp eq i32 %5, 0
  ret i1 %6
}

; Function Attrs: mustprogress uwtable
define linkonce_odr hidden noundef zeroext i1 @_ZNK14core_hashtableI17default_map_entryIjP11doc_managerEN9table2mapIS3_6u_hash4u_eqE15entry_hash_procENS7_13entry_eq_procEE6equalsERK9_key_dataIjS2_ESE_(ptr noundef nonnull align 8 dereferenceable(20) %0, ptr noundef nonnull align 8 dereferenceable(16) %1, ptr noundef nonnull align 8 dereferenceable(16) %2) #4 comdat align 2 {
  %4 = alloca ptr, align 8
  %5 = alloca ptr, align 8
  %6 = alloca ptr, align 8
  store ptr %0, ptr %4, align 8, !tbaa !633
  store ptr %1, ptr %5, align 8, !tbaa !833
  store ptr %2, ptr %6, align 8, !tbaa !833
  %7 = load ptr, ptr %4, align 8
  %8 = load ptr, ptr %5, align 8, !tbaa !833
  %9 = load ptr, ptr %6, align 8, !tbaa !833
  %10 = call noundef zeroext i1 @_ZNK9table2mapI17default_map_entryIjP11doc_managerE6u_hash4u_eqE13entry_eq_procclERK9_key_dataIjS2_ESB_(ptr noundef nonnull align 1 dereferenceable(1) %7, ptr noundef nonnull align 8 dereferenceable(16) %8, ptr noundef nonnull align 8 dereferenceable(16) %9)
  ret i1 %10
}

; Function Attrs: mustprogress nounwind uwtable
define linkonce_odr hidden noundef i32 @_ZNK18default_hash_entryI9_key_dataIjP11doc_managerEE8get_hashEv(ptr noundef nonnull align 8 dereferenceable(24) %0) #6 comdat align 2 {
  %2 = alloca ptr, align 8
  store ptr %0, ptr %2, align 8, !tbaa !640
  %3 = load ptr, ptr %2, align 8
  %4 = getelementptr inbounds nuw %class.default_hash_entry, ptr %3, i32 0, i32 0
  %5 = load i32, ptr %4, align 8, !tbaa !642
  ret i32 %5
}

; Function Attrs: mustprogress nounwind uwtable
define linkonce_odr hidden noundef zeroext i1 @_ZNK18default_hash_entryI9_key_dataIjP11doc_managerEE7is_usedEv(ptr noundef nonnull align 8 dereferenceable(24) %0) #6 comdat align 2 {
  %2 = alloca ptr, align 8
  store ptr %0, ptr %2, align 8, !tbaa !640
  %3 = load ptr, ptr %2, align 8
  %4 = getelementptr inbounds nuw %class.default_hash_entry, ptr %3, i32 0, i32 1
  %5 = load i32, ptr %4, align 4, !tbaa !645
  %6 = icmp eq i32 %5, 2
  ret i1 %6
}

; Function Attrs: mustprogress uwtable
define linkonce_odr hidden noundef i32 @_ZNK14core_hashtableI17default_map_entryIjP11doc_managerEN9table2mapIS3_6u_hash4u_eqE15entry_hash_procENS7_13entry_eq_procEE8get_hashERK9_key_dataIjS2_E(ptr noundef nonnull align 8 dereferenceable(20) %0, ptr noundef nonnull align 8 dereferenceable(16) %1) #4 comdat align 2 {
  %3 = alloca ptr, align 8
  %4 = alloca ptr, align 8
  store ptr %0, ptr %3, align 8, !tbaa !633
  store ptr %1, ptr %4, align 8, !tbaa !833
  %5 = load ptr, ptr %3, align 8
  %6 = load ptr, ptr %4, align 8, !tbaa !833
  %7 = call noundef i32 @_ZNK9table2mapI17default_map_entryIjP11doc_managerE6u_hash4u_eqE15entry_hash_procclERK9_key_dataIjS2_E(ptr noundef nonnull align 1 dereferenceable(1) %5, ptr noundef nonnull align 8 dereferenceable(16) %6)
  ret i32 %7
}

; Function Attrs: mustprogress uwtable
define linkonce_odr hidden noundef ptr @_ZNK14core_hashtableI17default_map_entryIjP11doc_managerEN9table2mapIS3_6u_hash4u_eqE15entry_hash_procENS7_13entry_eq_procEE9find_coreERK9_key_dataIjS2_E(ptr noundef nonnull align 8 dereferenceable(20) %0, ptr noundef nonnull align 8 dereferenceable(16) %1) #4 comdat align 2 {
  %3 = alloca ptr, align 8
  %4 = alloca ptr, align 8
  %5 = alloca ptr, align 8
  %6 = alloca i32, align 4
  %7 = alloca i32, align 4
  %8 = alloca i32, align 4
  %9 = alloca ptr, align 8
  %10 = alloca ptr, align 8
  %11 = alloca ptr, align 8
  %12 = alloca i32, align 4
  store ptr %0, ptr %4, align 8, !tbaa !633
  store ptr %1, ptr %5, align 8, !tbaa !833
  %13 = load ptr, ptr %4, align 8
  call void @llvm.lifetime.start.p0(i64 4, ptr %6) #3
  %14 = load ptr, ptr %5, align 8, !tbaa !833
  %15 = call noundef i32 @_ZNK14core_hashtableI17default_map_entryIjP11doc_managerEN9table2mapIS3_6u_hash4u_eqE15entry_hash_procENS7_13entry_eq_procEE8get_hashERK9_key_dataIjS2_E(ptr noundef nonnull align 8 dereferenceable(20) %13, ptr noundef nonnull align 8 dereferenceable(16) %14)
  store i32 %15, ptr %6, align 4, !tbaa !16
  call void @llvm.lifetime.start.p0(i64 4, ptr %7) #3
  %16 = getelementptr inbounds nuw %class.core_hashtable, ptr %13, i32 0, i32 1
  %17 = load i32, ptr %16, align 8, !tbaa !636
  %18 = sub i32 %17, 1
  store i32 %18, ptr %7, align 4, !tbaa !16
  call void @llvm.lifetime.start.p0(i64 4, ptr %8) #3
  %19 = load i32, ptr %6, align 4, !tbaa !16
  %20 = load i32, ptr %7, align 4, !tbaa !16
  %21 = and i32 %19, %20
  store i32 %21, ptr %8, align 4, !tbaa !16
  call void @llvm.lifetime.start.p0(i64 8, ptr %9) #3
  %22 = getelementptr inbounds nuw %class.core_hashtable, ptr %13, i32 0, i32 0
  %23 = load ptr, ptr %22, align 8, !tbaa !635
  %24 = load i32, ptr %8, align 4, !tbaa !16
  %25 = zext i32 %24 to i64
  %26 = getelementptr inbounds nuw %class.default_map_entry, ptr %23, i64 %25
  store ptr %26, ptr %9, align 8, !tbaa !378
  call void @llvm.lifetime.start.p0(i64 8, ptr %10) #3
  %27 = getelementptr inbounds nuw %class.core_hashtable, ptr %13, i32 0, i32 0
  %28 = load ptr, ptr %27, align 8, !tbaa !635
  %29 = getelementptr inbounds nuw %class.core_hashtable, ptr %13, i32 0, i32 1
  %30 = load i32, ptr %29, align 8, !tbaa !636
  %31 = zext i32 %30 to i64
  %32 = getelementptr inbounds nuw %class.default_map_entry, ptr %28, i64 %31
  store ptr %32, ptr %10, align 8, !tbaa !378
  call void @llvm.lifetime.start.p0(i64 8, ptr %11) #3
  %33 = load ptr, ptr %9, align 8, !tbaa !378
  store ptr %33, ptr %11, align 8, !tbaa !378
  br label %34

34:                                               ; preds = %61, %2
  %35 = load ptr, ptr %11, align 8, !tbaa !378
  %36 = load ptr, ptr %10, align 8, !tbaa !378
  %37 = icmp ne ptr %35, %36
  br i1 %37, label %38, label %64

38:                                               ; preds = %34
  %39 = load ptr, ptr %11, align 8, !tbaa !378
  %40 = call noundef zeroext i1 @_ZNK18default_hash_entryI9_key_dataIjP11doc_managerEE7is_usedEv(ptr noundef nonnull align 8 dereferenceable(24) %39)
  br i1 %40, label %41, label %54

41:                                               ; preds = %38
  %42 = load ptr, ptr %11, align 8, !tbaa !378
  %43 = call noundef i32 @_ZNK18default_hash_entryI9_key_dataIjP11doc_managerEE8get_hashEv(ptr noundef nonnull align 8 dereferenceable(24) %42)
  %44 = load i32, ptr %6, align 4, !tbaa !16
  %45 = icmp eq i32 %43, %44
  br i1 %45, label %46, label %53

46:                                               ; preds = %41
  %47 = load ptr, ptr %11, align 8, !tbaa !378
  %48 = call noundef nonnull align 8 dereferenceable(16) ptr @_ZN18default_hash_entryI9_key_dataIjP11doc_managerEE8get_dataEv(ptr noundef nonnull align 8 dereferenceable(24) %47)
  %49 = load ptr, ptr %5, align 8, !tbaa !833
  %50 = call noundef zeroext i1 @_ZNK14core_hashtableI17default_map_entryIjP11doc_managerEN9table2mapIS3_6u_hash4u_eqE15entry_hash_procENS7_13entry_eq_procEE6equalsERK9_key_dataIjS2_ESE_(ptr noundef nonnull align 8 dereferenceable(20) %13, ptr noundef nonnull align 8 dereferenceable(16) %48, ptr noundef nonnull align 8 dereferenceable(16) %49)
  br i1 %50, label %51, label %53

51:                                               ; preds = %46
  %52 = load ptr, ptr %11, align 8, !tbaa !378
  store ptr %52, ptr %3, align 8
  store i32 1, ptr %12, align 4
  br label %98

53:                                               ; preds = %46, %41
  br label %60

54:                                               ; preds = %38
  %55 = load ptr, ptr %11, align 8, !tbaa !378
  %56 = call noundef zeroext i1 @_ZNK18default_hash_entryI9_key_dataIjP11doc_managerEE7is_freeEv(ptr noundef nonnull align 8 dereferenceable(24) %55)
  br i1 %56, label %57, label %58

57:                                               ; preds = %54
  store ptr null, ptr %3, align 8
  store i32 1, ptr %12, align 4
  br label %98

58:                                               ; preds = %54
  br label %59

59:                                               ; preds = %58
  br label %60

60:                                               ; preds = %59, %53
  br label %61

61:                                               ; preds = %60
  %62 = load ptr, ptr %11, align 8, !tbaa !378
  %63 = getelementptr inbounds nuw %class.default_map_entry, ptr %62, i32 1
  store ptr %63, ptr %11, align 8, !tbaa !378
  br label %34, !llvm.loop !835

64:                                               ; preds = %34
  %65 = getelementptr inbounds nuw %class.core_hashtable, ptr %13, i32 0, i32 0
  %66 = load ptr, ptr %65, align 8, !tbaa !635
  store ptr %66, ptr %11, align 8, !tbaa !378
  br label %67

67:                                               ; preds = %94, %64
  %68 = load ptr, ptr %11, align 8, !tbaa !378
  %69 = load ptr, ptr %9, align 8, !tbaa !378
  %70 = icmp ne ptr %68, %69
  br i1 %70, label %71, label %97

71:                                               ; preds = %67
  %72 = load ptr, ptr %11, align 8, !tbaa !378
  %73 = call noundef zeroext i1 @_ZNK18default_hash_entryI9_key_dataIjP11doc_managerEE7is_usedEv(ptr noundef nonnull align 8 dereferenceable(24) %72)
  br i1 %73, label %74, label %87

74:                                               ; preds = %71
  %75 = load ptr, ptr %11, align 8, !tbaa !378
  %76 = call noundef i32 @_ZNK18default_hash_entryI9_key_dataIjP11doc_managerEE8get_hashEv(ptr noundef nonnull align 8 dereferenceable(24) %75)
  %77 = load i32, ptr %6, align 4, !tbaa !16
  %78 = icmp eq i32 %76, %77
  br i1 %78, label %79, label %86

79:                                               ; preds = %74
  %80 = load ptr, ptr %11, align 8, !tbaa !378
  %81 = call noundef nonnull align 8 dereferenceable(16) ptr @_ZN18default_hash_entryI9_key_dataIjP11doc_managerEE8get_dataEv(ptr noundef nonnull align 8 dereferenceable(24) %80)
  %82 = load ptr, ptr %5, align 8, !tbaa !833
  %83 = call noundef zeroext i1 @_ZNK14core_hashtableI17default_map_entryIjP11doc_managerEN9table2mapIS3_6u_hash4u_eqE15entry_hash_procENS7_13entry_eq_procEE6equalsERK9_key_dataIjS2_ESE_(ptr noundef nonnull align 8 dereferenceable(20) %13, ptr noundef nonnull align 8 dereferenceable(16) %81, ptr noundef nonnull align 8 dereferenceable(16) %82)
  br i1 %83, label %84, label %86

84:                                               ; preds = %79
  %85 = load ptr, ptr %11, align 8, !tbaa !378
  store ptr %85, ptr %3, align 8
  store i32 1, ptr %12, align 4
  br label %98

86:                                               ; preds = %79, %74
  br label %93

87:                                               ; preds = %71
  %88 = load ptr, ptr %11, align 8, !tbaa !378
  %89 = call noundef zeroext i1 @_ZNK18default_hash_entryI9_key_dataIjP11doc_managerEE7is_freeEv(ptr noundef nonnull align 8 dereferenceable(24) %88)
  br i1 %89, label %90, label %91

90:                                               ; preds = %87
  store ptr null, ptr %3, align 8
  store i32 1, ptr %12, align 4
  br label %98

91:                                               ; preds = %87
  br label %92

92:                                               ; preds = %91
  br label %93

93:                                               ; preds = %92, %86
  br label %94

94:                                               ; preds = %93
  %95 = load ptr, ptr %11, align 8, !tbaa !378
  %96 = getelementptr inbounds nuw %class.default_map_entry, ptr %95, i32 1
  store ptr %96, ptr %11, align 8, !tbaa !378
  br label %67, !llvm.loop !836

97:                                               ; preds = %67
  store ptr null, ptr %3, align 8
  store i32 1, ptr %12, align 4
  br label %98

98:                                               ; preds = %97, %90, %84, %57, %51
  call void @llvm.lifetime.end.p0(i64 8, ptr %11) #3
  call void @llvm.lifetime.end.p0(i64 8, ptr %10) #3
  call void @llvm.lifetime.end.p0(i64 8, ptr %9) #3
  call void @llvm.lifetime.end.p0(i64 4, ptr %8) #3
  call void @llvm.lifetime.end.p0(i64 4, ptr %7) #3
  call void @llvm.lifetime.end.p0(i64 4, ptr %6) #3
  %99 = load ptr, ptr %3, align 8
  ret ptr %99
}

; Function Attrs: mustprogress nounwind uwtable
define linkonce_odr hidden noundef nonnull align 8 dereferenceable(16) ptr @_ZN18default_hash_entryI9_key_dataIjP11doc_managerEE8get_dataEv(ptr noundef nonnull align 8 dereferenceable(24) %0) #6 comdat align 2 {
  %2 = alloca ptr, align 8
  store ptr %0, ptr %2, align 8, !tbaa !640
  %3 = load ptr, ptr %2, align 8
  %4 = getelementptr inbounds nuw %class.default_hash_entry, ptr %3, i32 0, i32 2
  ret ptr %4
}

; Function Attrs: mustprogress uwtable
define linkonce_odr hidden noundef ptr @_ZNK9table2mapI17default_map_entryIjP11doc_managerE6u_hash4u_eqE9find_coreERKj(ptr noundef nonnull align 8 dereferenceable(24) %0, ptr noundef nonnull align 4 dereferenceable(4) %1) #4 comdat align 2 {
  %3 = alloca ptr, align 8
  %4 = alloca ptr, align 8
  %5 = alloca %struct._key_data, align 8
  store ptr %0, ptr %3, align 8, !tbaa !370
  store ptr %1, ptr %4, align 8, !tbaa !39
  %6 = load ptr, ptr %3, align 8
  %7 = getelementptr inbounds nuw %class.table2map, ptr %6, i32 0, i32 0
  call void @llvm.lifetime.start.p0(i64 16, ptr %5) #3
  %8 = getelementptr inbounds nuw %struct._key_data, ptr %5, i32 0, i32 0
  %9 = load ptr, ptr %4, align 8, !tbaa !39
  %10 = load i32, ptr %9, align 4, !tbaa !16
  store i32 %10, ptr %8, align 8, !tbaa !379
  %11 = getelementptr inbounds nuw %struct._key_data, ptr %5, i32 0, i32 1
  store ptr null, ptr %11, align 8, !tbaa !367
  %12 = call noundef ptr @_ZNK14core_hashtableI17default_map_entryIjP11doc_managerEN9table2mapIS3_6u_hash4u_eqE15entry_hash_procENS7_13entry_eq_procEE9find_coreERK9_key_dataIjS2_E(ptr noundef nonnull align 8 dereferenceable(20) %7, ptr noundef nonnull align 8 dereferenceable(16) %5)
  call void @llvm.lifetime.end.p0(i64 16, ptr %5) #3
  ret ptr %12
}

; Function Attrs: mustprogress uwtable
define linkonce_odr hidden void @_ZN9table2mapI17default_map_entryIjP11doc_managerE6u_hash4u_eqE6insertERKjRKS2_(ptr noundef nonnull align 8 dereferenceable(24) %0, ptr noundef nonnull align 4 dereferenceable(4) %1, ptr noundef nonnull align 8 dereferenceable(8) %2) #4 comdat align 2 {
  %4 = alloca ptr, align 8
  %5 = alloca ptr, align 8
  %6 = alloca ptr, align 8
  %7 = alloca %struct._key_data, align 8
  store ptr %0, ptr %4, align 8, !tbaa !370
  store ptr %1, ptr %5, align 8, !tbaa !39
  store ptr %2, ptr %6, align 8, !tbaa !376
  %8 = load ptr, ptr %4, align 8
  %9 = getelementptr inbounds nuw %class.table2map, ptr %8, i32 0, i32 0
  call void @llvm.lifetime.start.p0(i64 16, ptr %7) #3
  %10 = getelementptr inbounds nuw %struct._key_data, ptr %7, i32 0, i32 0
  %11 = load ptr, ptr %5, align 8, !tbaa !39
  %12 = load i32, ptr %11, align 4, !tbaa !16
  store i32 %12, ptr %10, align 8, !tbaa !379
  %13 = getelementptr inbounds nuw %struct._key_data, ptr %7, i32 0, i32 1
  %14 = load ptr, ptr %6, align 8, !tbaa !376
  %15 = load ptr, ptr %14, align 8, !tbaa !14
  store ptr %15, ptr %13, align 8, !tbaa !367
  call void @_ZN14core_hashtableI17default_map_entryIjP11doc_managerEN9table2mapIS3_6u_hash4u_eqE15entry_hash_procENS7_13entry_eq_procEE6insertEO9_key_dataIjS2_E(ptr noundef nonnull align 8 dereferenceable(20) %9, ptr noundef nonnull align 8 dereferenceable(16) %7)
  call void @llvm.lifetime.end.p0(i64 16, ptr %7) #3
  ret void
}

; Function Attrs: mustprogress uwtable
define linkonce_odr hidden noundef zeroext i1 @_ZNK9table2mapI17default_map_entryIjP11doc_managerE6u_hash4u_eqE4findERKjRS2_(ptr noundef nonnull align 8 dereferenceable(24) %0, ptr noundef nonnull align 4 dereferenceable(4) %1, ptr noundef nonnull align 8 dereferenceable(8) %2) #4 comdat align 2 {
  %4 = alloca ptr, align 8
  %5 = alloca ptr, align 8
  %6 = alloca ptr, align 8
  %7 = alloca ptr, align 8
  store ptr %0, ptr %4, align 8, !tbaa !370
  store ptr %1, ptr %5, align 8, !tbaa !39
  store ptr %2, ptr %6, align 8, !tbaa !376
  %8 = load ptr, ptr %4, align 8
  call void @llvm.lifetime.start.p0(i64 8, ptr %7) #3
  %9 = load ptr, ptr %5, align 8, !tbaa !39
  %10 = call noundef ptr @_ZNK9table2mapI17default_map_entryIjP11doc_managerE6u_hash4u_eqE9find_coreERKj(ptr noundef nonnull align 8 dereferenceable(24) %8, ptr noundef nonnull align 4 dereferenceable(4) %9)
  store ptr %10, ptr %7, align 8, !tbaa !378
  %11 = load ptr, ptr %7, align 8, !tbaa !378
  %12 = icmp ne ptr %11, null
  br i1 %12, label %13, label %19

13:                                               ; preds = %3
  %14 = load ptr, ptr %7, align 8, !tbaa !378
  %15 = call noundef nonnull align 8 dereferenceable(16) ptr @_ZN18default_hash_entryI9_key_dataIjP11doc_managerEE8get_dataEv(ptr noundef nonnull align 8 dereferenceable(24) %14)
  %16 = getelementptr inbounds nuw %struct._key_data, ptr %15, i32 0, i32 1
  %17 = load ptr, ptr %16, align 8, !tbaa !367
  %18 = load ptr, ptr %6, align 8, !tbaa !376
  store ptr %17, ptr %18, align 8, !tbaa !14
  br label %19

19:                                               ; preds = %13, %3
  %20 = load ptr, ptr %7, align 8, !tbaa !378
  %21 = icmp ne ptr null, %20
  call void @llvm.lifetime.end.p0(i64 8, ptr %7) #3
  ret i1 %21
}

; Function Attrs: mustprogress uwtable
define hidden noundef nonnull align 8 dereferenceable(1080) ptr @_ZN7datalog11udoc_plugin2dmEj(ptr noundef nonnull align 8 dereferenceable(129) %0, i32 noundef %1) #4 align 2 {
  %3 = alloca ptr, align 8
  %4 = alloca i32, align 4
  %5 = alloca ptr, align 8
  store ptr %0, ptr %3, align 8, !tbaa !8
  store i32 %1, ptr %4, align 4, !tbaa !16
  %6 = load ptr, ptr %3, align 8
  call void @llvm.lifetime.start.p0(i64 8, ptr %5) #3
  %7 = getelementptr inbounds nuw %"class.datalog::udoc_plugin", ptr %6, i32 0, i32 5
  %8 = call noundef zeroext i1 @_ZNK9table2mapI17default_map_entryIjP11doc_managerE6u_hash4u_eqE4findERKjRS2_(ptr noundef nonnull align 8 dereferenceable(24) %7, ptr noundef nonnull align 4 dereferenceable(4) %4, ptr noundef nonnull align 8 dereferenceable(8) %5)
  br i1 %8, label %13, label %9

9:                                                ; preds = %2
  %10 = call noalias noundef ptr @_ZN6memory8allocateEm(i64 noundef 1080)
  %11 = load i32, ptr %4, align 4, !tbaa !16
  call void @_ZN11doc_managerC1Ej(ptr noundef nonnull align 8 dereferenceable(1080) %10, i32 noundef %11)
  store ptr %10, ptr %5, align 8, !tbaa !14
  %12 = getelementptr inbounds nuw %"class.datalog::udoc_plugin", ptr %6, i32 0, i32 5
  call void @_ZN9table2mapI17default_map_entryIjP11doc_managerE6u_hash4u_eqE6insertERKjRKS2_(ptr noundef nonnull align 8 dereferenceable(24) %12, ptr noundef nonnull align 4 dereferenceable(4) %4, ptr noundef nonnull align 8 dereferenceable(8) %5)
  br label %13

13:                                               ; preds = %9, %2
  %14 = load ptr, ptr %5, align 8, !tbaa !14
  call void @llvm.lifetime.end.p0(i64 8, ptr %5) #3
  ret ptr %14
}