; Function Attrs: mustprogress uwtable
define hidden noundef nonnull align 8 dereferenceable(1080) ptr @_ZN7datalog11udoc_plugin2dmEj(ptr noundef nonnull align 8 dereferenceable(129) %0, i32 noundef %1) local_unnamed_addr #3 align 2 {
  %3 = alloca %struct._key_data, align 8
  %4 = getelementptr inbounds nuw i8, ptr %0, i64 104
  %5 = getelementptr inbounds nuw i8, ptr %0, i64 112
  %6 = load i32, ptr %5, align 8, !tbaa !41
  %7 = add i32 %6, -1
  %8 = and i32 %7, %1
  %9 = load ptr, ptr %4, align 8, !tbaa !44
  %10 = zext i32 %8 to i64
  %11 = getelementptr inbounds nuw %class.default_map_entry, ptr %9, i64 %10
  %12 = zext i32 %6 to i64
  %13 = getelementptr inbounds nuw %class.default_map_entry, ptr %9, i64 %12
  %.not30.i.i.i = icmp eq i32 %8, %6
  br i1 %.not30.i.i.i, label %.preheader.i.i.i, label %.lr.ph.i.i.i

.preheader.i.i.i:                                 ; preds = %23, %2
  %.not2732.i.i.i = icmp eq i32 %8, 0
  br i1 %.not2732.i.i.i, label %.loopexit, label %.lr.ph34.i.i.i

.lr.ph.i.i.i:                                     ; preds = %2, %23
  %.031.i.i.i = phi ptr [ %24, %23 ], [ %11, %2 ]
  %14 = getelementptr inbounds nuw i8, ptr %.031.i.i.i, i64 4
  %15 = load i32, ptr %14, align 4, !tbaa !45
  switch i32 %15, label %23 [
    i32 2, label %16
    i32 0, label %.loopexit
  ]

16:                                               ; preds = %.lr.ph.i.i.i
  %17 = load i32, ptr %.031.i.i.i, align 8, !tbaa !49
  %18 = icmp eq i32 %17, %1
  br i1 %18, label %19, label %23

19:                                               ; preds = %16
  %20 = getelementptr inbounds nuw i8, ptr %.031.i.i.i, i64 8
  %21 = load i32, ptr %20, align 8, !tbaa !50
  %22 = icmp eq i32 %21, %1
  br i1 %22, label %_ZNK9table2mapI17default_map_entryIjP11doc_managerE6u_hash4u_eqE4findERKjRS2_.exit, label %23

23:                                               ; preds = %19, %16, %.lr.ph.i.i.i
  %24 = getelementptr inbounds nuw i8, ptr %.031.i.i.i, i64 24
  %.not.i.i.i = icmp eq ptr %24, %13
  br i1 %.not.i.i.i, label %.preheader.i.i.i, label %.lr.ph.i.i.i, !llvm.loop !51

.lr.ph34.i.i.i:                                   ; preds = %.preheader.i.i.i, %34
  %.133.i.i.i = phi ptr [ %35, %34 ], [ %9, %.preheader.i.i.i ]
  %25 = getelementptr inbounds nuw i8, ptr %.133.i.i.i, i64 4
  %26 = load i32, ptr %25, align 4, !tbaa !45
  switch i32 %26, label %34 [
    i32 2, label %27
    i32 0, label %.loopexit
  ]

27:                                               ; preds = %.lr.ph34.i.i.i
  %28 = load i32, ptr %.133.i.i.i, align 8, !tbaa !49
  %29 = icmp eq i32 %28, %1
  br i1 %29, label %30, label %34

30:                                               ; preds = %27
  %31 = getelementptr inbounds nuw i8, ptr %.133.i.i.i, i64 8
  %32 = load i32, ptr %31, align 8, !tbaa !50
  %33 = icmp eq i32 %32, %1
  br i1 %33, label %_ZNK9table2mapI17default_map_entryIjP11doc_managerE6u_hash4u_eqE4findERKjRS2_.exit, label %34

34:                                               ; preds = %30, %27, %.lr.ph34.i.i.i
  %35 = getelementptr inbounds nuw i8, ptr %.133.i.i.i, i64 24
  %.not27.i.i.i = icmp eq ptr %35, %11
  br i1 %.not27.i.i.i, label %.loopexit, label %.lr.ph34.i.i.i, !llvm.loop !52

_ZNK9table2mapI17default_map_entryIjP11doc_managerE6u_hash4u_eqE4findERKjRS2_.exit: ; preds = %19, %30
  %.026.i.i.i = phi ptr [ %.133.i.i.i, %30 ], [ %.031.i.i.i, %19 ]
  %36 = getelementptr inbounds nuw i8, ptr %.026.i.i.i, i64 16
  %37 = load ptr, ptr %36, align 8, !tbaa !53
  br label %40

.loopexit:                                        ; preds = %.lr.ph.i.i.i, %.lr.ph34.i.i.i, %34, %.preheader.i.i.i
  %38 = tail call noalias noundef ptr @_ZN6memory8allocateEm(i64 noundef 1080)
  tail call void @_ZN11doc_managerC1Ej(ptr noundef nonnull align 8 dereferenceable(1080) %38, i32 noundef %1)
  call void @llvm.lifetime.start.p0(i64 16, ptr nonnull %3) #24
  store i32 %1, ptr %3, align 8, !tbaa !50
  %39 = getelementptr inbounds nuw i8, ptr %3, i64 8
  store ptr %38, ptr %39, align 8, !tbaa !53
  call void @_ZN14core_hashtableI17default_map_entryIjP11doc_managerEN9table2mapIS3_6u_hash4u_eqE15entry_hash_procENS7_13entry_eq_procEE6insertEO9_key_dataIjS2_E(ptr noundef nonnull align 8 dereferenceable(24) %4, ptr noundef nonnull align 8 dereferenceable(16) %3)
  call void @llvm.lifetime.end.p0(i64 16, ptr nonnull %3) #24
  br label %40

40:                                               ; preds = %_ZNK9table2mapI17default_map_entryIjP11doc_managerE6u_hash4u_eqE4findERKjRS2_.exit, %.loopexit
  %.0 = phi ptr [ %37, %_ZNK9table2mapI17default_map_entryIjP11doc_managerE6u_hash4u_eqE4findERKjRS2_.exit ], [ %38, %.loopexit ]
  ret ptr %.0
}